target datalayout = "e-m:e-p270:32:32-p271:32:32-p272:64:64-i64:64-i128:128-f80:128-n8:16:32:64-S128"
target triple = "x86_64-pc-linux-gnu"

%struct.wpacket_st = type { ptr, ptr, i64, i64, i64, ptr, i8 }

@.str = private unnamed_addr constant [35 x i8] c"../openssl/crypto/hpke/hpke_util.c\00", align 1
@LABEL_HPKEV1 = internal constant [8 x i8] c"HPKE-v1\00", align 1
@__func__.ossl_hpke_labeled_expand = private unnamed_addr constant [25 x i8] c"ossl_hpke_labeled_expand\00", align 1

; Function Attrs: nounwind uwtable
define i32 @ossl_hpke_kdf_expand(ptr noundef %0, ptr noundef %1, i64 noundef %2, ptr noundef %3, i64 noundef %4, ptr noundef %5, i64 noundef %6) #0 {
  %8 = alloca ptr, align 8
  %9 = alloca ptr, align 8
  %10 = alloca i64, align 8
  %11 = alloca ptr, align 8
  %12 = alloca i64, align 8
  %13 = alloca ptr, align 8
  %14 = alloca i64, align 8
  store ptr %0, ptr %8, align 8, !tbaa !29
  store ptr %1, ptr %9, align 8, !tbaa !3
  store i64 %2, ptr %10, align 8, !tbaa !22
  store ptr %3, ptr %11, align 8, !tbaa !3
  store i64 %4, ptr %12, align 8, !tbaa !22
  store ptr %5, ptr %13, align 8, !tbaa !3
  store i64 %6, ptr %14, align 8, !tbaa !22
  %15 = load ptr, ptr %8, align 8, !tbaa !29
  %16 = load ptr, ptr %9, align 8, !tbaa !3
  %17 = load i64, ptr %10, align 8, !tbaa !22
  %18 = load ptr, ptr %11, align 8, !tbaa !3
  %19 = load i64, ptr %12, align 8, !tbaa !22
  %20 = load ptr, ptr %13, align 8, !tbaa !3
  %21 = load i64, ptr %14, align 8, !tbaa !22
  %22 = call i32 @kdf_derive(ptr noundef %15, ptr noundef %16, i64 noundef %17, i32 noundef 2, ptr noundef null, i64 noundef 0, ptr noundef %18, i64 noundef %19, ptr noundef %20, i64 noundef %21)
  ret i32 %22
}

; Function Attrs: nounwind uwtable
define i32 @ossl_hpke_labeled_expand(ptr noundef %0, ptr noundef %1, i64 noundef %2, ptr noundef %3, i64 noundef %4, ptr noundef %5, ptr noundef %6, i64 noundef %7, ptr noundef %8, ptr noundef %9, i64 noundef %10) #0 {
  %12 = alloca i32, align 4
  %13 = alloca ptr, align 8
  %14 = alloca ptr, align 8
  %15 = alloca i64, align 8
  %16 = alloca ptr, align 8
  %17 = alloca i64, align 8
  %18 = alloca ptr, align 8
  %19 = alloca ptr, align 8
  %20 = alloca i64, align 8
  %21 = alloca ptr, align 8
  %22 = alloca ptr, align 8
  %23 = alloca i64, align 8
  %24 = alloca i32, align 4
  %25 = alloca i64, align 8
  %26 = alloca i64, align 8
  %27 = alloca i64, align 8
  %28 = alloca i64, align 8
  %29 = alloca ptr, align 8
  %30 = alloca %struct.wpacket_st, align 8
  %31 = alloca i32, align 4
  store ptr %0, ptr %13, align 8, !tbaa !29
  store ptr %1, ptr %14, align 8, !tbaa !3
  store i64 %2, ptr %15, align 8, !tbaa !22
  store ptr %3, ptr %16, align 8, !tbaa !3
  store i64 %4, ptr %17, align 8, !tbaa !22
  store ptr %5, ptr %18, align 8, !tbaa !3
  store ptr %6, ptr %19, align 8, !tbaa !3
  store i64 %7, ptr %20, align 8, !tbaa !22
  store ptr %8, ptr %21, align 8, !tbaa !3
  store ptr %9, ptr %22, align 8, !tbaa !3
  store i64 %10, ptr %23, align 8, !tbaa !22
  call void @llvm.lifetime.start.p0(i64 4, ptr %24) #5
  store i32 0, ptr %24, align 4, !tbaa !8
  call void @llvm.lifetime.start.p0(i64 8, ptr %25) #5
  store i64 0, ptr %25, align 8, !tbaa !22
  call void @llvm.lifetime.start.p0(i64 8, ptr %26) #5
  store i64 0, ptr %26, align 8, !tbaa !22
  call void @llvm.lifetime.start.p0(i64 8, ptr %27) #5
  store i64 0, ptr %27, align 8, !tbaa !22
  call void @llvm.lifetime.start.p0(i64 8, ptr %28) #5
  store i64 0, ptr %28, align 8, !tbaa !22
  call void @llvm.lifetime.start.p0(i64 8, ptr %29) #5
  store ptr null, ptr %29, align 8, !tbaa !3
  call void @llvm.lifetime.start.p0(i64 56, ptr %30) #5
  store i64 7, ptr %25, align 8, !tbaa !22
  %32 = load ptr, ptr %18, align 8, !tbaa !3
  %33 = call i64 @strlen(ptr noundef %32) #6
  store i64 %33, ptr %26, align 8, !tbaa !22
  %34 = load ptr, ptr %21, align 8, !tbaa !3
  %35 = call i64 @strlen(ptr noundef %34) #6
  store i64 %35, ptr %27, align 8, !tbaa !22
  %36 = load i64, ptr %15, align 8, !tbaa !22
  %37 = add i64 2, %36
  %38 = load i64, ptr %17, align 8, !tbaa !22
  %39 = add i64 %37, %38
  %40 = load i64, ptr %25, align 8, !tbaa !22
  %41 = add i64 %39, %40
  %42 = load i64, ptr %26, align 8, !tbaa !22
  %43 = add i64 %41, %42
  %44 = load i64, ptr %20, align 8, !tbaa !22
  %45 = add i64 %43, %44
  %46 = load i64, ptr %27, align 8, !tbaa !22
  %47 = add i64 %45, %46
  %48 = load i64, ptr %23, align 8, !tbaa !22
  %49 = add i64 %47, %48
  store i64 %49, ptr %28, align 8, !tbaa !22
  %50 = load i64, ptr %28, align 8, !tbaa !22
  %51 = call noalias ptr @CRYPTO_malloc(i64 noundef %50, ptr noundef @.str, i32 noundef 366)
  store ptr %51, ptr %29, align 8, !tbaa !3
  %52 = load ptr, ptr %29, align 8, !tbaa !3
  %53 = icmp eq ptr %52, null
  br i1 %53, label %54, label %55

54:                                               ; preds = %11
  store i32 0, ptr %12, align 4
  store i32 1, ptr %31, align 4
  br label %107

55:                                               ; preds = %11
  %56 = load ptr, ptr %29, align 8, !tbaa !3
  %57 = load i64, ptr %28, align 8, !tbaa !22
  %58 = call i32 @WPACKET_init_static_len(ptr noundef %30, ptr noundef %56, i64 noundef %57, i64 noundef 0)
  %59 = icmp ne i32 %58, 0
  br i1 %59, label %60, label %94

60:                                               ; preds = %55
  %61 = load i64, ptr %15, align 8, !tbaa !22
  %62 = call i32 @WPACKET_put_bytes__(ptr noundef %30, i64 noundef %61, i64 noundef 2)
  %63 = icmp ne i32 %62, 0
  br i1 %63, label %64, label %94

64:                                               ; preds = %60
  %65 = load i64, ptr %25, align 8, !tbaa !22
  %66 = call i32 @WPACKET_memcpy(ptr noundef %30, ptr noundef @LABEL_HPKEV1, i64 noundef %65)
  %67 = icmp ne i32 %66, 0
  br i1 %67, label %68, label %94

68:                                               ; preds = %64
  %69 = load ptr, ptr %18, align 8, !tbaa !3
  %70 = load i64, ptr %26, align 8, !tbaa !22
  %71 = call i32 @WPACKET_memcpy(ptr noundef %30, ptr noundef %69, i64 noundef %70)
  %72 = icmp ne i32 %71, 0
  br i1 %72, label %73, label %94

73:                                               ; preds = %68
  %74 = load ptr, ptr %19, align 8, !tbaa !3
  %75 = load i64, ptr %20, align 8, !tbaa !22
  %76 = call i32 @WPACKET_memcpy(ptr noundef %30, ptr noundef %74, i64 noundef %75)
  %77 = icmp ne i32 %76, 0
  br i1 %77, label %78, label %94

78:                                               ; preds = %73
  %79 = load ptr, ptr %21, align 8, !tbaa !3
  %80 = load i64, ptr %27, align 8, !tbaa !22
  %81 = call i32 @WPACKET_memcpy(ptr noundef %30, ptr noundef %79, i64 noundef %80)
  %82 = icmp ne i32 %81, 0
  br i1 %82, label %83, label %94

83:                                               ; preds = %78
  %84 = load ptr, ptr %22, align 8, !tbaa !3
  %85 = load i64, ptr %23, align 8, !tbaa !22
  %86 = call i32 @WPACKET_memcpy(ptr noundef %30, ptr noundef %84, i64 noundef %85)
  %87 = icmp ne i32 %86, 0
  br i1 %87, label %88, label %94

88:                                               ; preds = %83
  %89 = call i32 @WPACKET_get_total_written(ptr noundef %30, ptr noundef %28)
  %90 = icmp ne i32 %89, 0
  br i1 %90, label %91, label %94

91:                                               ; preds = %88
  %92 = call i32 @WPACKET_finish(ptr noundef %30)
  %93 = icmp ne i32 %92, 0
  br i1 %93, label %95, label %94

94:                                               ; preds = %91, %88, %83, %78, %73, %68, %64, %60, %55
  call void @ERR_new()
  call void @ERR_set_debug(ptr noundef @.str, i32 noundef 380, ptr noundef @__func__.ossl_hpke_labeled_expand)
  call void (i32, i32, ptr, ...) @ERR_set_error(i32 noundef 57, i32 noundef 106, ptr noundef null)
  br label %104

95:                                               ; preds = %91
  %96 = load ptr, ptr %13, align 8, !tbaa !29
  %97 = load ptr, ptr %14, align 8, !tbaa !3
  %98 = load i64, ptr %15, align 8, !tbaa !22
  %99 = load ptr, ptr %16, align 8, !tbaa !3
  %100 = load i64, ptr %17, align 8, !tbaa !22
  %101 = load ptr, ptr %29, align 8, !tbaa !3
  %102 = load i64, ptr %28, align 8, !tbaa !22
  %103 = call i32 @ossl_hpke_kdf_expand(ptr noundef %96, ptr noundef %97, i64 noundef %98, ptr noundef %99, i64 noundef %100, ptr noundef %101, i64 noundef %102)
  store i32 %103, ptr %24, align 4, !tbaa !8
  br label %104

104:                                              ; preds = %95, %94
  call void @WPACKET_cleanup(ptr noundef %30)
  %105 = load ptr, ptr %29, align 8, !tbaa !3
  call void @CRYPTO_free(ptr noundef %105, ptr noundef @.str, i32 noundef 388)
  %106 = load i32, ptr %24, align 4, !tbaa !8
  store i32 %106, ptr %12, align 4
  store i32 1, ptr %31, align 4
  br label %107

107:                                              ; preds = %104, %54
  call void @llvm.lifetime.end.p0(i64 56, ptr %30) #5
  call void @llvm.lifetime.end.p0(i64 8, ptr %29) #5
  call void @llvm.lifetime.end.p0(i64 8, ptr %28) #5
  call void @llvm.lifetime.end.p0(i64 8, ptr %27) #5
  call void @llvm.lifetime.end.p0(i64 8, ptr %26) #5
  call void @llvm.lifetime.end.p0(i64 8, ptr %25) #5
  call void @llvm.lifetime.end.p0(i64 4, ptr %24) #5
  %108 = load i32, ptr %12, align 4
  ret i32 %108
}