; Function Attrs: nounwind uwtable
define range(i32 0, 2) i32 @ossl_hpke_labeled_expand(ptr noundef %0, ptr noundef %1, i64 noundef %2, ptr noundef %3, i64 noundef %4, ptr noundef %5, ptr noundef %6, i64 noundef %7, ptr noundef %8, ptr noundef %9, i64 noundef %10) local_unnamed_addr #0 {
  %12 = alloca i64, align 8
  %13 = alloca %struct.wpacket_st, align 8
  call void @llvm.lifetime.start.p0(i64 8, ptr nonnull %12) #5
  call void @llvm.lifetime.start.p0(i64 56, ptr nonnull %13) #5
  %14 = tail call i64 @strlen(ptr noundef nonnull dereferenceable(1) %5) #6
  %15 = tail call i64 @strlen(ptr noundef nonnull dereferenceable(1) %8) #6
  %16 = add i64 %2, 9
  %17 = add i64 %16, %4
  %18 = add i64 %17, %7
  %19 = add i64 %18, %10
  %20 = add i64 %19, %14
  %21 = add i64 %20, %15
  store i64 %21, ptr %12, align 8, !tbaa !27
  %22 = tail call noalias ptr @CRYPTO_malloc(i64 noundef %21, ptr noundef nonnull @.str, i32 noundef 366) #5
  %23 = icmp eq ptr %22, null
  br i1 %23, label %47, label %24

24:                                               ; preds = %11
  %25 = call i32 @WPACKET_init_static_len(ptr noundef nonnull %13, ptr noundef nonnull %22, i64 noundef %21, i64 noundef 0) #5
  %.not = icmp eq i32 %25, 0
  br i1 %.not, label %42, label %26

26:                                               ; preds = %24
  %27 = call i32 @WPACKET_put_bytes__(ptr noundef nonnull %13, i64 noundef %2, i64 noundef 2) #5
  %.not31 = icmp eq i32 %27, 0
  br i1 %.not31, label %42, label %28

28:                                               ; preds = %26
  %29 = call i32 @WPACKET_memcpy(ptr noundef nonnull %13, ptr noundef nonnull @LABEL_HPKEV1, i64 noundef 7) #5
  %.not32 = icmp eq i32 %29, 0
  br i1 %.not32, label %42, label %30

30:                                               ; preds = %28
  %31 = call i32 @WPACKET_memcpy(ptr noundef nonnull %13, ptr noundef nonnull %5, i64 noundef %14) #5
  %.not33 = icmp eq i32 %31, 0
  br i1 %.not33, label %42, label %32

32:                                               ; preds = %30
  %33 = call i32 @WPACKET_memcpy(ptr noundef nonnull %13, ptr noundef %6, i64 noundef %7) #5
  %.not34 = icmp eq i32 %33, 0
  br i1 %.not34, label %42, label %34

34:                                               ; preds = %32
  %35 = call i32 @WPACKET_memcpy(ptr noundef nonnull %13, ptr noundef nonnull %8, i64 noundef %15) #5
  %.not35 = icmp eq i32 %35, 0
  br i1 %.not35, label %42, label %36

36:                                               ; preds = %34
  %37 = call i32 @WPACKET_memcpy(ptr noundef nonnull %13, ptr noundef %9, i64 noundef %10) #5
  %.not36 = icmp eq i32 %37, 0
  br i1 %.not36, label %42, label %38

38:                                               ; preds = %36
  %39 = call i32 @WPACKET_get_total_written(ptr noundef nonnull %13, ptr noundef nonnull %12) #5
  %.not37 = icmp eq i32 %39, 0
  br i1 %.not37, label %42, label %40

40:                                               ; preds = %38
  %41 = call i32 @WPACKET_finish(ptr noundef nonnull %13) #5
  %.not38 = icmp eq i32 %41, 0
  br i1 %.not38, label %42, label %43

42:                                               ; preds = %40, %38, %36, %34, %32, %30, %28, %26, %24
  call void @ERR_new() #5
  call void @ERR_set_debug(ptr noundef nonnull @.str, i32 noundef 380, ptr noundef nonnull @__func__.ossl_hpke_labeled_expand) #5
  call void (i32, i32, ptr, ...) @ERR_set_error(i32 noundef 57, i32 noundef 106, ptr noundef null) #5
  br label %46

43:                                               ; preds = %40
  %44 = load i64, ptr %12, align 8, !tbaa !27
  %45 = call fastcc range(i32 0, 2) i32 @kdf_derive(ptr noundef %0, ptr noundef %1, i64 noundef %2, i32 noundef 2, ptr noundef null, i64 noundef 0, ptr noundef %3, i64 noundef %4, ptr noundef nonnull %22, i64 noundef %44)
  br label %46

46:                                               ; preds = %43, %42
  %.0 = phi i32 [ %45, %43 ], [ 0, %42 ]
  call void @WPACKET_cleanup(ptr noundef nonnull %13) #5
  call void @CRYPTO_free(ptr noundef nonnull %22, ptr noundef nonnull @.str, i32 noundef 388) #5
  br label %47

47:                                               ; preds = %11, %46
  %.029 = phi i32 [ %.0, %46 ], [ 0, %11 ]
  call void @llvm.lifetime.end.p0(i64 56, ptr nonnull %13) #5
  call void @llvm.lifetime.end.p0(i64 8, ptr nonnull %12) #5
  ret i32 %.029
}